target datalayout = "e-m:e-p270:32:32-p271:32:32-p272:64:64-i64:64-i128:128-f80:128-n8:16:32:64-S128"
target triple = "x86_64-pc-linux-gnu"

%struct.H5L_elink_cb_t = type { ptr, ptr }

@H5P_CLS_LINK_ACCESS_ID_g = external global i64, align 8
@H5_libinit_g = external global i8, align 1
@H5_libterm_g = external global i8, align 1
@.str.1 = private unnamed_addr constant [101 x i8] c"generated/home/dtcxzyw/WorkSpace/Projects/compilers/llvm-opt-benchmark/bench/hdf5/hdf5/src/H5Plapl.c\00", align 1
@H5E_FUNC_g = external global i64, align 8
@H5E_CANTINIT_g = external global i64, align 8
@.str.2 = private unnamed_addr constant [30 x i8] c"library initialization failed\00", align 1
@H5E_CANTSET_g = external global i64, align 8
@.str.3 = private unnamed_addr constant [22 x i8] c"can't set API context\00", align 1
@H5E_ARGS_g = external global i64, align 8
@H5E_BADVALUE_g = external global i64, align 8
@H5E_ID_g = external global i64, align 8
@H5E_BADID_g = external global i64, align 8
@.str.5 = private unnamed_addr constant [25 x i8] c"can't find object for ID\00", align 1
@H5E_PLIST_g = external global i64, align 8
@__func__.H5Pset_elink_cb = private unnamed_addr constant [16 x i8] c"H5Pset_elink_cb\00", align 1
@.str.21 = private unnamed_addr constant [40 x i8] c"callback is NULL while user data is not\00", align 1
@.str.22 = private unnamed_addr constant [23 x i8] c"external link callback\00", align 1
@.str.23 = private unnamed_addr constant [24 x i8] c"can't set callback info\00", align 1

; Function Attrs: nounwind uwtable
define i32 @H5Pset_elink_cb(i64 noundef %0, ptr noundef %1, ptr noundef %2) #0 {
  %4 = alloca i64, align 8
  %5 = alloca ptr, align 8
  %6 = alloca ptr, align 8
  %7 = alloca ptr, align 8
  %8 = alloca %struct.H5L_elink_cb_t, align 8
  %9 = alloca i32, align 4
  %10 = alloca i8, align 1
  %11 = alloca i8, align 1
  store i64 %0, ptr %4, align 8
  store ptr %1, ptr %5, align 8
  store ptr %2, ptr %6, align 8
  store i32 0, ptr %9, align 4
  store i8 0, ptr %10, align 1
  store i8 0, ptr %11, align 1
  %12 = load i8, ptr @H5_libinit_g, align 1
  %13 = trunc i8 %12 to i1
  br i1 %13, label %18, label %14

14:                                               ; preds = %3
  %15 = load i8, ptr @H5_libterm_g, align 1
  %16 = trunc i8 %15 to i1
  %17 = xor i1 %16, true
  br label %18

18:                                               ; preds = %14, %3
  %19 = phi i1 [ false, %3 ], [ %17, %14 ]
  %20 = xor i1 %19, true
  %21 = xor i1 %20, true
  %22 = zext i1 %21 to i32
  %23 = sext i32 %22 to i64
  %24 = icmp ne i64 %23, 0
  br i1 %24, label %25, label %49

25:                                               ; preds = %18
  %26 = call i32 @H5_init_library()
  %27 = icmp slt i32 %26, 0
  %28 = xor i1 %27, true
  %29 = xor i1 %28, true
  %30 = zext i1 %29 to i32
  %31 = sext i32 %30 to i64
  %32 = icmp ne i64 %31, 0
  br i1 %32, label %33, label %48

33:                                               ; preds = %25
  br label %34

34:                                               ; preds = %33
  br label %35

35:                                               ; preds = %34
  br label %36

36:                                               ; preds = %35
  %37 = load i64, ptr @H5E_FUNC_g, align 8
  %38 = load i64, ptr @H5E_CANTINIT_g, align 8
  %39 = call i32 (ptr, ptr, i32, i64, i64, ptr, ...) @H5E_printf_stack(ptr noundef @.str.1, ptr noundef @__func__.H5Pset_elink_cb, i32 noundef 1137, i64 noundef %37, i64 noundef %38, ptr noundef @.str.2)
  br label %40

40:                                               ; preds = %36
  store i8 1, ptr %11, align 1
  %41 = load i8, ptr %11, align 1
  %42 = trunc i8 %41 to i1
  %43 = zext i1 %42 to i8
  store i8 %43, ptr %11, align 1
  br label %44

44:                                               ; preds = %40
  br label %45

45:                                               ; preds = %44
  store i32 -1, ptr %9, align 4
  br label %139

46:                                               ; No predecessors!
  br label %47

47:                                               ; preds = %46
  br label %48

48:                                               ; preds = %47, %25
  br label %49

49:                                               ; preds = %48, %18
  %50 = call i32 @H5CX_push()
  %51 = icmp slt i32 %50, 0
  %52 = xor i1 %51, true
  %53 = xor i1 %52, true
  %54 = zext i1 %53 to i32
  %55 = sext i32 %54 to i64
  %56 = icmp ne i64 %55, 0
  br i1 %56, label %57, label %72

57:                                               ; preds = %49
  br label %58

58:                                               ; preds = %57
  br label %59

59:                                               ; preds = %58
  br label %60

60:                                               ; preds = %59
  %61 = load i64, ptr @H5E_FUNC_g, align 8
  %62 = load i64, ptr @H5E_CANTSET_g, align 8
  %63 = call i32 (ptr, ptr, i32, i64, i64, ptr, ...) @H5E_printf_stack(ptr noundef @.str.1, ptr noundef @__func__.H5Pset_elink_cb, i32 noundef 1137, i64 noundef %61, i64 noundef %62, ptr noundef @.str.3)
  br label %64

64:                                               ; preds = %60
  store i8 1, ptr %11, align 1
  %65 = load i8, ptr %11, align 1
  %66 = trunc i8 %65 to i1
  %67 = zext i1 %66 to i8
  store i8 %67, ptr %11, align 1
  br label %68

68:                                               ; preds = %64
  br label %69

69:                                               ; preds = %68
  store i32 -1, ptr %9, align 4
  br label %139

70:                                               ; No predecessors!
  br label %71

71:                                               ; preds = %70
  br label %73

72:                                               ; preds = %49
  store i8 1, ptr %10, align 1
  br label %73

73:                                               ; preds = %72, %71
  %74 = call i32 @H5E_clear_stack()
  %75 = load ptr, ptr %5, align 8
  %76 = icmp ne ptr %75, null
  br i1 %76, label %95, label %77

77:                                               ; preds = %73
  %78 = load ptr, ptr %6, align 8
  %79 = icmp ne ptr %78, null
  br i1 %79, label %80, label %95

80:                                               ; preds = %77
  br label %81

81:                                               ; preds = %80
  br label %82

82:                                               ; preds = %81
  br label %83

83:                                               ; preds = %82
  %84 = load i64, ptr @H5E_ARGS_g, align 8
  %85 = load i64, ptr @H5E_BADVALUE_g, align 8
  %86 = call i32 (ptr, ptr, i32, i64, i64, ptr, ...) @H5E_printf_stack(ptr noundef @.str.1, ptr noundef @__func__.H5Pset_elink_cb, i32 noundef 1142, i64 noundef %84, i64 noundef %85, ptr noundef @.str.21)
  br label %87

87:                                               ; preds = %83
  store i8 1, ptr %11, align 1
  %88 = load i8, ptr %11, align 1
  %89 = trunc i8 %88 to i1
  %90 = zext i1 %89 to i8
  store i8 %90, ptr %11, align 1
  br label %91

91:                                               ; preds = %87
  br label %92

92:                                               ; preds = %91
  store i32 -1, ptr %9, align 4
  br label %139

93:                                               ; No predecessors!
  br label %94

94:                                               ; preds = %93
  br label %95

95:                                               ; preds = %94, %77, %73
  %96 = load i64, ptr %4, align 8
  %97 = load i64, ptr @H5P_CLS_LINK_ACCESS_ID_g, align 8
  %98 = call ptr @H5P_object_verify(i64 noundef %96, i64 noundef %97)
  store ptr %98, ptr %7, align 8
  %99 = icmp eq ptr null, %98
  br i1 %99, label %100, label %115

100:                                              ; preds = %95
  br label %101

101:                                              ; preds = %100
  br label %102

102:                                              ; preds = %101
  br label %103

103:                                              ; preds = %102
  %104 = load i64, ptr @H5E_ID_g, align 8
  %105 = load i64, ptr @H5E_BADID_g, align 8
  %106 = call i32 (ptr, ptr, i32, i64, i64, ptr, ...) @H5E_printf_stack(ptr noundef @.str.1, ptr noundef @__func__.H5Pset_elink_cb, i32 noundef 1146, i64 noundef %104, i64 noundef %105, ptr noundef @.str.5)
  br label %107

107:                                              ; preds = %103
  store i8 1, ptr %11, align 1
  %108 = load i8, ptr %11, align 1
  %109 = trunc i8 %108 to i1
  %110 = zext i1 %109 to i8
  store i8 %110, ptr %11, align 1
  br label %111

111:                                              ; preds = %107
  br label %112

112:                                              ; preds = %111
  store i32 -1, ptr %9, align 4
  br label %139

113:                                              ; No predecessors!
  br label %114

114:                                              ; preds = %113
  br label %115

115:                                              ; preds = %114, %95
  %116 = load ptr, ptr %5, align 8
  %117 = getelementptr inbounds %struct.H5L_elink_cb_t, ptr %8, i32 0, i32 0
  store ptr %116, ptr %117, align 8
  %118 = load ptr, ptr %6, align 8
  %119 = getelementptr inbounds %struct.H5L_elink_cb_t, ptr %8, i32 0, i32 1
  store ptr %118, ptr %119, align 8
  %120 = load ptr, ptr %7, align 8
  %121 = call i32 @H5P_set(ptr noundef %120, ptr noundef @.str.22, ptr noundef %8)
  %122 = icmp slt i32 %121, 0
  br i1 %122, label %123, label %138

123:                                              ; preds = %115
  br label %124

124:                                              ; preds = %123
  br label %125

125:                                              ; preds = %124
  br label %126

126:                                              ; preds = %125
  %127 = load i64, ptr @H5E_PLIST_g, align 8
  %128 = load i64, ptr @H5E_CANTSET_g, align 8
  %129 = call i32 (ptr, ptr, i32, i64, i64, ptr, ...) @H5E_printf_stack(ptr noundef @.str.1, ptr noundef @__func__.H5Pset_elink_cb, i32 noundef 1154, i64 noundef %127, i64 noundef %128, ptr noundef @.str.23)
  br label %130

130:                                              ; preds = %126
  store i8 1, ptr %11, align 1
  %131 = load i8, ptr %11, align 1
  %132 = trunc i8 %131 to i1
  %133 = zext i1 %132 to i8
  store i8 %133, ptr %11, align 1
  br label %134

134:                                              ; preds = %130
  br label %135

135:                                              ; preds = %134
  store i32 -1, ptr %9, align 4
  br label %139

136:                                              ; No predecessors!
  br label %137

137:                                              ; preds = %136
  br label %138

138:                                              ; preds = %137, %115
  br label %139

139:                                              ; preds = %138, %135, %112, %92, %69, %45
  %140 = load i8, ptr %10, align 1
  %141 = trunc i8 %140 to i1
  %142 = xor i1 %141, true
  %143 = xor i1 %142, true
  %144 = zext i1 %143 to i32
  %145 = sext i32 %144 to i64
  %146 = icmp ne i64 %145, 0
  br i1 %146, label %147, label %149

147:                                              ; preds = %139
  %148 = call i32 @H5CX_pop(i1 noundef zeroext true)
  store i8 0, ptr %10, align 1
  br label %149

149:                                              ; preds = %147, %139
  %150 = load i8, ptr %11, align 1
  %151 = trunc i8 %150 to i1
  %152 = xor i1 %151, true
  %153 = xor i1 %152, true
  %154 = zext i1 %153 to i32
  %155 = sext i32 %154 to i64
  %156 = icmp ne i64 %155, 0
  br i1 %156, label %157, label %159

157:                                              ; preds = %149
  %158 = call i32 @H5E_dump_api_stack()
  br label %159

159:                                              ; preds = %157, %149
  %160 = load i32, ptr %9, align 4
  ret i32 %160
}