; Function Attrs: nounwind uwtable
define range(i32 -1, 1) i32 @H5Pset_elink_cb(i64 noundef %0, ptr noundef %1, ptr noundef %2) local_unnamed_addr #0 {
  %4 = alloca %struct.H5L_elink_cb_t, align 8
  %5 = load i8, ptr @H5_libinit_g, align 1
  %6 = trunc i8 %5 to i1
  %7 = load i8, ptr @H5_libterm_g, align 1
  %8 = trunc i8 %7 to i1
  %9 = select i1 %6, i1 true, i1 %8
  br i1 %9, label %17, label %10

10:                                               ; preds = %3
  %11 = tail call i32 @H5_init_library() #8
  %12 = icmp slt i32 %11, 0
  br i1 %12, label %13, label %17

13:                                               ; preds = %10
  %14 = load i64, ptr @H5E_FUNC_g, align 8
  %15 = load i64, ptr @H5E_CANTINIT_g, align 8
  %16 = tail call i32 (ptr, ptr, i32, i64, i64, ptr, ...) @H5E_printf_stack(ptr noundef nonnull @.str.1, ptr noundef nonnull @__func__.H5Pset_elink_cb, i32 noundef 1137, i64 noundef %14, i64 noundef %15, ptr noundef nonnull @.str.2) #8
  br label %.thread25

17:                                               ; preds = %10, %3
  %18 = tail call i32 @H5CX_push() #8
  %19 = icmp slt i32 %18, 0
  br i1 %19, label %20, label %24

20:                                               ; preds = %17
  %21 = load i64, ptr @H5E_FUNC_g, align 8
  %22 = load i64, ptr @H5E_CANTSET_g, align 8
  %23 = tail call i32 (ptr, ptr, i32, i64, i64, ptr, ...) @H5E_printf_stack(ptr noundef nonnull @.str.1, ptr noundef nonnull @__func__.H5Pset_elink_cb, i32 noundef 1137, i64 noundef %21, i64 noundef %22, ptr noundef nonnull @.str.3) #8
  br label %.thread25

24:                                               ; preds = %17
  %25 = tail call i32 @H5E_clear_stack() #8
  %26 = icmp eq ptr %1, null
  %27 = icmp ne ptr %2, null
  %or.cond = and i1 %26, %27
  br i1 %or.cond, label %28, label %32

28:                                               ; preds = %24
  %29 = load i64, ptr @H5E_ARGS_g, align 8
  %30 = load i64, ptr @H5E_BADVALUE_g, align 8
  %31 = tail call i32 (ptr, ptr, i32, i64, i64, ptr, ...) @H5E_printf_stack(ptr noundef nonnull @.str.1, ptr noundef nonnull @__func__.H5Pset_elink_cb, i32 noundef 1142, i64 noundef %29, i64 noundef %30, ptr noundef nonnull @.str.21) #8
  br label %.thread31

32:                                               ; preds = %24
  %33 = load i64, ptr @H5P_CLS_LINK_ACCESS_ID_g, align 8
  %34 = tail call ptr @H5P_object_verify(i64 noundef %0, i64 noundef %33) #8
  %35 = icmp eq ptr %34, null
  br i1 %35, label %36, label %40

36:                                               ; preds = %32
  %37 = load i64, ptr @H5E_ID_g, align 8
  %38 = load i64, ptr @H5E_BADID_g, align 8
  %39 = tail call i32 (ptr, ptr, i32, i64, i64, ptr, ...) @H5E_printf_stack(ptr noundef nonnull @.str.1, ptr noundef nonnull @__func__.H5Pset_elink_cb, i32 noundef 1146, i64 noundef %37, i64 noundef %38, ptr noundef nonnull @.str.5) #8
  br label %.thread31

40:                                               ; preds = %32
  store ptr %1, ptr %4, align 8
  %41 = getelementptr inbounds nuw i8, ptr %4, i64 8
  store ptr %2, ptr %41, align 8
  %42 = call i32 @H5P_set(ptr noundef nonnull %34, ptr noundef nonnull @.str.22, ptr noundef nonnull %4) #8
  %43 = icmp slt i32 %42, 0
  br i1 %43, label %44, label %49

44:                                               ; preds = %40
  %45 = load i64, ptr @H5E_PLIST_g, align 8
  %46 = load i64, ptr @H5E_CANTSET_g, align 8
  %47 = call i32 (ptr, ptr, i32, i64, i64, ptr, ...) @H5E_printf_stack(ptr noundef nonnull @.str.1, ptr noundef nonnull @__func__.H5Pset_elink_cb, i32 noundef 1154, i64 noundef %45, i64 noundef %46, ptr noundef nonnull @.str.23) #8
  br label %.thread31

.thread31:                                        ; preds = %44, %36, %28
  %48 = call i32 @H5CX_pop(i1 noundef zeroext true) #8
  br label %.thread25

49:                                               ; preds = %40
  %50 = call i32 @H5CX_pop(i1 noundef zeroext true) #8
  br label %52

.thread25:                                        ; preds = %20, %13, %.thread31
  %51 = call i32 @H5E_dump_api_stack() #8
  br label %52

52:                                               ; preds = %49, %.thread25
  %.0152028 = phi i32 [ -1, %.thread25 ], [ 0, %49 ]
  ret i32 %.0152028
}